#include <math.h>
#include <stdio.h>
#include <stdlib.h>
#include <string.h>
#include <iostream>
using namespace std;

/*
 * monkeyapple.cpp
 *
 *  Created on: 2012-11-27
 *      Author: wangrunhui
 */


int main(void)
{
	int  n,k,i;
	cin >> n >> k;
	int monkey[n + 1];//monkey???????????????
	monkey[n] = n + k;//???????????????n+k
	while(true){
		for ( i = n - 1; i > 0; i --)//????????????????????
		{
			if ( ( monkey[i + 1] % (n - 1) ) != 0) break;//?????n-1???????????
			monkey[i] = monkey[i + 1]*n/(n - 1) + k;//??????????????
		}
		if ( i == 0) break;//i==0??????????????????
		monkey[n] += n;//????????????????????????????????n
	}
	cout<< monkey[1] << endl;//???????????????????????
	return 0;
}
